target datalayout = "e-m:e-p270:32:32-p271:32:32-p272:64:64-i64:64-i128:128-f80:128-n8:16:32:64-S128"
target triple = "x86_64-pc-linux-gnu"

@.str = private unnamed_addr constant [36 x i8] c"../openssl/crypto/engine/eng_ctrl.c\00", align 1
@__func__.ENGINE_cmd_is_executable = private unnamed_addr constant [25 x i8] c"ENGINE_cmd_is_executable\00", align 1

; Function Attrs: nounwind uwtable
define i32 @ENGINE_cmd_is_executable(ptr noundef %0, i32 noundef %1) #0 {
  %3 = alloca i32, align 4
  %4 = alloca ptr, align 8
  %5 = alloca i32, align 4
  %6 = alloca i32, align 4
  %7 = alloca i32, align 4
  store ptr %0, ptr %4, align 8, !tbaa !3
  store i32 %1, ptr %5, align 4, !tbaa !8
  call void @llvm.lifetime.start.p0(i64 4, ptr %6) #5
  %8 = load ptr, ptr %4, align 8, !tbaa !3
  %9 = load i32, ptr %5, align 4, !tbaa !8
  %10 = sext i32 %9 to i64
  %11 = call i32 @ENGINE_ctrl(ptr noundef %8, i32 noundef 18, i64 noundef %10, ptr noundef null, ptr noundef null)
  store i32 %11, ptr %6, align 4, !tbaa !8
  %12 = icmp slt i32 %11, 0
  br i1 %12, label %13, label %14

13:                                               ; preds = %2
  call void @ERR_new()
  call void @ERR_set_debug(ptr noundef @.str, i32 noundef 181, ptr noundef @__func__.ENGINE_cmd_is_executable)
  call void (i32, i32, ptr, ...) @ERR_set_error(i32 noundef 38, i32 noundef 138, ptr noundef null)
  store i32 0, ptr %3, align 4
  store i32 1, ptr %7, align 4
  br label %28

14:                                               ; preds = %2
  %15 = load i32, ptr %6, align 4, !tbaa !8
  %16 = and i32 %15, 4
  %17 = icmp ne i32 %16, 0
  br i1 %17, label %27, label %18

18:                                               ; preds = %14
  %19 = load i32, ptr %6, align 4, !tbaa !8
  %20 = and i32 %19, 1
  %21 = icmp ne i32 %20, 0
  br i1 %21, label %27, label %22

22:                                               ; preds = %18
  %23 = load i32, ptr %6, align 4, !tbaa !8
  %24 = and i32 %23, 2
  %25 = icmp ne i32 %24, 0
  br i1 %25, label %27, label %26

26:                                               ; preds = %22
  store i32 0, ptr %3, align 4
  store i32 1, ptr %7, align 4
  br label %28

27:                                               ; preds = %22, %18, %14
  store i32 1, ptr %3, align 4
  store i32 1, ptr %7, align 4
  br label %28

28:                                               ; preds = %27, %26, %13
  call void @llvm.lifetime.end.p0(i64 4, ptr %6) #5
  %29 = load i32, ptr %3, align 4
  ret i32 %29
}