; Function Attrs: nounwind uwtable
define range(i32 0, 2) i32 @ENGINE_cmd_is_executable(ptr noundef %0, i32 noundef %1) local_unnamed_addr #0 {
  %3 = sext i32 %1 to i64
  %4 = tail call i32 @ENGINE_ctrl(ptr noundef %0, i32 noundef 18, i64 noundef %3, ptr noundef null, ptr noundef null)
  %5 = icmp slt i32 %4, 0
  br i1 %5, label %6, label %7

6:                                                ; preds = %2
  tail call void @ERR_new() #6
  tail call void @ERR_set_debug(ptr noundef nonnull @.str, i32 noundef 181, ptr noundef nonnull @__func__.ENGINE_cmd_is_executable) #6
  tail call void (i32, i32, ptr, ...) @ERR_set_error(i32 noundef 38, i32 noundef 138, ptr noundef null) #6
  br label %9

7:                                                ; preds = %2
  %8 = and i32 %4, 7
  %or.cond8 = icmp ne i32 %8, 0
  %spec.select = zext i1 %or.cond8 to i32
  br label %9

9:                                                ; preds = %7, %6
  %.0 = phi i32 [ 0, %6 ], [ %spec.select, %7 ]
  ret i32 %.0
}